; Function Attrs: mustprogress nounwind uwtable
define dso_local void @_ZN4llvm17PredicateExpander15expandStatementERNS_11raw_ostreamEPKNS_6RecordE(ptr nocapture noundef nonnull align 8 dereferenceable(24) %0, ptr noundef nonnull align 8 dereferenceable(48) %1, ptr noundef nonnull %2) local_unnamed_addr #0 align 2 {
  %4 = alloca %"class.std::vector", align 8
  %5 = tail call noundef zeroext i1 @_ZNK4llvm6Record12isSubClassOfENS_9StringRefE(ptr noundef nonnull align 8 dereferenceable(192) %2, ptr nonnull @.str.55, i64 23)
  br i1 %5, label %6, label %15

6:                                                ; preds = %3
  call void @_ZNK4llvm6Record20getValueAsListOfDefsENS_9StringRefE(ptr dead_on_unwind nonnull writable sret(%"class.std::vector") align 8 %4, ptr noundef nonnull align 8 dereferenceable(192) %2, ptr nonnull @.str.56, i64 5) #10
  %7 = call noundef ptr @_ZNK4llvm6Record13getValueAsDefENS_9StringRefE(ptr noundef nonnull align 8 dereferenceable(192) %2, ptr nonnull @.str.57, i64 11) #10
  call void @_ZN4llvm17PredicateExpander27expandOpcodeSwitchStatementERNS_11raw_ostreamERKSt6vectorIPNS_6RecordESaIS5_EEPKS4_(ptr noundef nonnull align 8 dereferenceable(24) %0, ptr noundef nonnull align 8 dereferenceable(48) %1, ptr noundef nonnull align 8 dereferenceable(24) %4, ptr noundef %7)
  %8 = load ptr, ptr %4, align 8
  %.not.i.i.i = icmp eq ptr %8, null
  br i1 %.not.i.i.i, label %_ZNSt6vectorIPN4llvm6RecordESaIS2_EED2Ev.exit, label %9

9:                                                ; preds = %6
  %10 = getelementptr inbounds nuw i8, ptr %4, i64 16
  %11 = load ptr, ptr %10, align 8
  %12 = ptrtoint ptr %11 to i64
  %13 = ptrtoint ptr %8 to i64
  %14 = sub i64 %12, %13
  call void @_ZdlPvm(ptr noundef nonnull %8, i64 noundef %14) #11
  br label %_ZNSt6vectorIPN4llvm6RecordESaIS2_EED2Ev.exit

15:                                               ; preds = %3
  %16 = tail call noundef zeroext i1 @_ZNK4llvm6Record12isSubClassOfENS_9StringRefE(ptr noundef nonnull align 8 dereferenceable(192) %2, ptr nonnull @.str.58, i64 17)
  tail call void @llvm.assume(i1 %16)
  %17 = tail call noundef ptr @_ZNK4llvm6Record13getValueAsDefENS_9StringRefE(ptr noundef nonnull align 8 dereferenceable(192) %2, ptr nonnull @.str.59, i64 4) #10
  tail call void @_ZN4llvm17PredicateExpander21expandReturnStatementERNS_11raw_ostreamEPKNS_6RecordE(ptr noundef nonnull align 8 dereferenceable(24) %0, ptr noundef nonnull align 8 dereferenceable(48) %1, ptr noundef %17)
  br label %_ZNSt6vectorIPN4llvm6RecordESaIS2_EED2Ev.exit

_ZNSt6vectorIPN4llvm6RecordESaIS2_EED2Ev.exit:    ; preds = %9, %6, %15
  ret void
}